target datalayout = "e-m:e-p270:32:32-p271:32:32-p272:64:64-i64:64-i128:128-f80:128-n8:16:32:64-S128"
target triple = "x86_64-pc-linux-gnu"

%struct._zend_posix_globals = type { i32 }
%struct._zval_struct = type { %union._zend_value, %union.anon, %union.anon.2 }
%union._zend_value = type { i64 }
%union.anon = type { i32 }
%union.anon.2 = type { i32 }
%struct._zend_execute_data = type { ptr, ptr, ptr, ptr, %struct._zval_struct, ptr, ptr, ptr, ptr }

@posix_globals = hidden global %struct._zend_posix_globals zeroinitializer, align 4

; Function Attrs: nounwind uwtable
define hidden void @zif_posix_setegid(ptr noundef %0, ptr noundef %1) #0 {
  %3 = alloca ptr, align 8
  %4 = alloca ptr, align 8
  %5 = alloca i1, align 1
  %6 = alloca ptr, align 8
  %7 = alloca ptr, align 8
  %8 = alloca ptr, align 8
  %9 = alloca i8, align 1
  %10 = alloca i32, align 4
  %11 = alloca i8, align 1
  %12 = alloca ptr, align 8
  %13 = alloca ptr, align 8
  %14 = alloca ptr, align 8
  %15 = alloca i8, align 1
  %16 = alloca i32, align 4
  %17 = alloca ptr, align 8
  %18 = alloca ptr, align 8
  %19 = alloca i64, align 8
  %20 = alloca i32, align 4
  %21 = alloca i32, align 4
  %22 = alloca i32, align 4
  %23 = alloca i32, align 4
  %24 = alloca i32, align 4
  %25 = alloca ptr, align 8
  %26 = alloca ptr, align 8
  %27 = alloca i32, align 4
  %28 = alloca ptr, align 8
  %29 = alloca i8, align 1
  %30 = alloca i8, align 1
  %31 = alloca i32, align 4
  store ptr %0, ptr %17, align 8
  store ptr %1, ptr %18, align 8
  br label %32

32:                                               ; preds = %2
  store i32 0, ptr %20, align 4
  store i32 1, ptr %21, align 4
  store i32 1, ptr %22, align 4
  %33 = load ptr, ptr %17, align 8
  %34 = getelementptr inbounds %struct._zend_execute_data, ptr %33, i32 0, i32 4
  %35 = getelementptr inbounds %struct._zval_struct, ptr %34, i32 0, i32 2
  %36 = load i32, ptr %35, align 4
  store i32 %36, ptr %23, align 4
  store i32 0, ptr %24, align 4
  store ptr null, ptr %26, align 8
  store i32 0, ptr %27, align 4
  store ptr null, ptr %28, align 8
  store i8 0, ptr %29, align 1
  store i8 0, ptr %30, align 1
  store i32 0, ptr %31, align 4
  br label %37

37:                                               ; preds = %32
  %38 = load i32, ptr %23, align 4
  %39 = load i32, ptr %21, align 4
  %40 = icmp ult i32 %38, %39
  %41 = xor i1 %40, true
  %42 = xor i1 %41, true
  %43 = zext i1 %42 to i32
  %44 = sext i32 %43 to i64
  %45 = icmp ne i64 %44, 0
  br i1 %45, label %55, label %46

46:                                               ; preds = %37
  %47 = load i32, ptr %23, align 4
  %48 = load i32, ptr %22, align 4
  %49 = icmp ugt i32 %47, %48
  %50 = xor i1 %49, true
  %51 = xor i1 %50, true
  %52 = zext i1 %51 to i32
  %53 = sext i32 %52 to i64
  %54 = icmp ne i64 %53, 0
  br i1 %54, label %55, label %58

55:                                               ; preds = %46, %37
  %56 = load i32, ptr %21, align 4
  %57 = load i32, ptr %22, align 4
  call void @zend_wrong_parameters_count_error(i32 noundef %56, i32 noundef %57)
  store i32 1, ptr %31, align 4
  br label %169

58:                                               ; preds = %46
  %59 = load ptr, ptr %17, align 8
  %60 = getelementptr inbounds %struct._zval_struct, ptr %59, i64 4
  store ptr %60, ptr %25, align 8
  %61 = load i32, ptr %24, align 4
  %62 = add i32 %61, 1
  store i32 %62, ptr %24, align 4
  %63 = load i32, ptr %24, align 4
  %64 = load i32, ptr %21, align 4
  %65 = icmp ule i32 %63, %64
  br i1 %65, label %71, label %66

66:                                               ; preds = %58
  %67 = load i8, ptr %30, align 1
  %68 = trunc i8 %67 to i1
  %69 = zext i1 %68 to i32
  %70 = icmp eq i32 %69, 1
  br label %71

71:                                               ; preds = %66, %58
  %72 = phi i1 [ true, %58 ], [ %70, %66 ]
  call void @llvm.assume(i1 %72)
  %73 = load i32, ptr %24, align 4
  %74 = load i32, ptr %21, align 4
  %75 = icmp ugt i32 %73, %74
  br i1 %75, label %81, label %76

76:                                               ; preds = %71
  %77 = load i8, ptr %30, align 1
  %78 = trunc i8 %77 to i1
  %79 = zext i1 %78 to i32
  %80 = icmp eq i32 %79, 0
  br label %81

81:                                               ; preds = %76, %71
  %82 = phi i1 [ true, %71 ], [ %80, %76 ]
  call void @llvm.assume(i1 %82)
  %83 = load i8, ptr %30, align 1
  %84 = trunc i8 %83 to i1
  br i1 %84, label %85, label %96

85:                                               ; preds = %81
  %86 = load i32, ptr %24, align 4
  %87 = load i32, ptr %23, align 4
  %88 = icmp ugt i32 %86, %87
  %89 = xor i1 %88, true
  %90 = xor i1 %89, true
  %91 = zext i1 %90 to i32
  %92 = sext i32 %91 to i64
  %93 = icmp ne i64 %92, 0
  br i1 %93, label %94, label %95

94:                                               ; preds = %85
  br label %169

95:                                               ; preds = %85
  br label %96

96:                                               ; preds = %95, %81
  %97 = load ptr, ptr %25, align 8
  %98 = getelementptr inbounds %struct._zval_struct, ptr %97, i32 1
  store ptr %98, ptr %25, align 8
  %99 = load ptr, ptr %25, align 8
  store ptr %99, ptr %26, align 8
  %100 = load ptr, ptr %26, align 8
  %101 = load i32, ptr %24, align 4
  store ptr %100, ptr %12, align 8
  store ptr %19, ptr %13, align 8
  store ptr %29, ptr %14, align 8
  store i8 0, ptr %15, align 1
  store i32 %101, ptr %16, align 4
  %102 = load ptr, ptr %12, align 8
  %103 = load ptr, ptr %13, align 8
  %104 = load ptr, ptr %14, align 8
  %105 = load i8, ptr %15, align 1
  %106 = trunc i8 %105 to i1
  %107 = load i32, ptr %16, align 4
  store ptr %102, ptr %6, align 8
  store ptr %103, ptr %7, align 8
  store ptr %104, ptr %8, align 8
  %108 = zext i1 %106 to i8
  store i8 %108, ptr %9, align 1
  store i32 %107, ptr %10, align 4
  store i8 0, ptr %11, align 1
  %109 = load i8, ptr %9, align 1
  %110 = trunc i8 %109 to i1
  br i1 %110, label %111, label %113

111:                                              ; preds = %96
  %112 = load ptr, ptr %8, align 8
  store i8 0, ptr %112, align 1
  br label %113

113:                                              ; preds = %111, %96
  %114 = load ptr, ptr %6, align 8
  store ptr %114, ptr %3, align 8
  %115 = load ptr, ptr %3, align 8
  %116 = getelementptr inbounds %struct._zval_struct, ptr %115, i32 0, i32 1
  %117 = load i8, ptr %116, align 8
  %118 = zext i8 %117 to i32
  %119 = icmp eq i32 %118, 4
  br i1 %119, label %120, label %124

120:                                              ; preds = %113
  %121 = load ptr, ptr %6, align 8
  %122 = load i64, ptr %121, align 8
  %123 = load ptr, ptr %7, align 8
  store i64 %122, ptr %123, align 8
  br label %150

124:                                              ; preds = %113
  %125 = load i8, ptr %9, align 1
  %126 = trunc i8 %125 to i1
  br i1 %126, label %127, label %137

127:                                              ; preds = %124
  %128 = load ptr, ptr %6, align 8
  store ptr %128, ptr %4, align 8
  %129 = load ptr, ptr %4, align 8
  %130 = getelementptr inbounds %struct._zval_struct, ptr %129, i32 0, i32 1
  %131 = load i8, ptr %130, align 8
  %132 = zext i8 %131 to i32
  %133 = icmp eq i32 %132, 1
  br i1 %133, label %134, label %137

134:                                              ; preds = %127
  %135 = load ptr, ptr %8, align 8
  store i8 1, ptr %135, align 1
  %136 = load ptr, ptr %7, align 8
  store i64 0, ptr %136, align 8
  br label %150

137:                                              ; preds = %127, %124
  %138 = load i8, ptr %11, align 1
  %139 = trunc i8 %138 to i1
  br i1 %139, label %140, label %145

140:                                              ; preds = %137
  %141 = load ptr, ptr %6, align 8
  %142 = load ptr, ptr %7, align 8
  %143 = load i32, ptr %10, align 4
  %144 = call zeroext i1 @zend_flf_parse_arg_long_slow(ptr noundef %141, ptr noundef %142, i32 noundef %143) #9
  store i1 %144, ptr %5, align 1
  br label %151

145:                                              ; preds = %137
  %146 = load ptr, ptr %6, align 8
  %147 = load ptr, ptr %7, align 8
  %148 = load i32, ptr %10, align 4
  %149 = call zeroext i1 @zend_parse_arg_long_slow(ptr noundef %146, ptr noundef %147, i32 noundef %148) #9
  store i1 %149, ptr %5, align 1
  br label %151

150:                                              ; preds = %134, %120
  store i1 true, ptr %5, align 1
  br label %151

151:                                              ; preds = %150, %145, %140
  %152 = load i1, ptr %5, align 1
  %153 = xor i1 %152, true
  %154 = xor i1 %153, true
  %155 = xor i1 %154, true
  %156 = zext i1 %155 to i32
  %157 = sext i32 %156 to i64
  %158 = icmp ne i64 %157, 0
  br i1 %158, label %159, label %160

159:                                              ; preds = %151
  store i32 0, ptr %27, align 4
  store i32 9, ptr %31, align 4
  br label %169

160:                                              ; preds = %151
  %161 = load i32, ptr %24, align 4
  %162 = load i32, ptr %22, align 4
  %163 = icmp eq i32 %161, %162
  br i1 %163, label %167, label %164

164:                                              ; preds = %160
  %165 = load i32, ptr %22, align 4
  %166 = icmp eq i32 %165, -1
  br label %167

167:                                              ; preds = %164, %160
  %168 = phi i1 [ true, %160 ], [ %166, %164 ]
  call void @llvm.assume(i1 %168)
  br label %169

169:                                              ; preds = %167, %159, %94, %55
  %170 = load i32, ptr %31, align 4
  %171 = icmp ne i32 %170, 0
  %172 = xor i1 %171, true
  %173 = xor i1 %172, true
  %174 = zext i1 %173 to i32
  %175 = sext i32 %174 to i64
  %176 = icmp ne i64 %175, 0
  br i1 %176, label %177, label %183

177:                                              ; preds = %169
  %178 = load i32, ptr %31, align 4
  %179 = load i32, ptr %24, align 4
  %180 = load ptr, ptr %28, align 8
  %181 = load i32, ptr %27, align 4
  %182 = load ptr, ptr %26, align 8
  call void @zend_wrong_parameter_error(i32 noundef %178, i32 noundef %179, ptr noundef %180, i32 noundef %181, ptr noundef %182)
  br label %204

183:                                              ; preds = %169
  br label %184

184:                                              ; preds = %183
  %185 = load i64, ptr %19, align 8
  %186 = trunc i64 %185 to i32
  %187 = call i32 @setegid(i32 noundef %186) #9
  %188 = icmp slt i32 %187, 0
  br i1 %188, label %189, label %198

189:                                              ; preds = %184
  %190 = call ptr @__errno_location() #10
  %191 = load i32, ptr %190, align 4
  store i32 %191, ptr @posix_globals, align 4
  br label %192

192:                                              ; preds = %189
  br label %193

193:                                              ; preds = %192
  %194 = load ptr, ptr %18, align 8
  %195 = getelementptr inbounds %struct._zval_struct, ptr %194, i32 0, i32 1
  store i32 2, ptr %195, align 8
  br label %196

196:                                              ; preds = %193
  br label %204

197:                                              ; No predecessors!
  br label %198

198:                                              ; preds = %197, %184
  br label %199

199:                                              ; preds = %198
  br label %200

200:                                              ; preds = %199
  %201 = load ptr, ptr %18, align 8
  %202 = getelementptr inbounds %struct._zval_struct, ptr %201, i32 0, i32 1
  store i32 3, ptr %202, align 8
  br label %203

203:                                              ; preds = %200
  br label %204

204:                                              ; preds = %203, %196, %177
  ret void
}