; Function Attrs: nounwind uwtable
define hidden void @zif_posix_setegid(ptr noundef %0, ptr nocapture noundef writeonly %1) #0 {
  %3 = alloca i64, align 8
  %4 = getelementptr inbounds i8, ptr %0, i64 44
  %5 = load i32, ptr %4, align 4
  %cond = icmp eq i32 %5, 1
  br i1 %cond, label %6, label %.thread78

6:                                                ; preds = %2
  %7 = getelementptr inbounds i8, ptr %0, i64 80
  %8 = getelementptr inbounds i8, ptr %0, i64 88
  %9 = load i8, ptr %8, align 8
  %10 = icmp eq i8 %9, 4
  br i1 %10, label %.thread68, label %12

.thread68:                                        ; preds = %6
  %11 = load i64, ptr %7, align 8
  store i64 %11, ptr %3, align 8
  br label %.thread86

12:                                               ; preds = %6
  %13 = call zeroext i1 @zend_parse_arg_long_slow(ptr noundef nonnull %7, ptr noundef nonnull %3, i32 noundef 1) #11
  %.fr = freeze i1 %13
  br i1 %.fr, label %..thread86_crit_edge, label %14

..thread86_crit_edge:                             ; preds = %12
  %.pre = load i64, ptr %3, align 8
  br label %.thread86

.thread78:                                        ; preds = %2
  tail call void @zend_wrong_parameters_count_error(i32 noundef 1, i32 noundef 1) #11
  br label %14

14:                                               ; preds = %12, %.thread78
  %.085 = phi i32 [ 1, %.thread78 ], [ 9, %12 ]
  %.05784 = phi i32 [ 0, %.thread78 ], [ 1, %12 ]
  %.05983 = phi ptr [ null, %.thread78 ], [ %7, %12 ]
  call void @zend_wrong_parameter_error(i32 noundef %.085, i32 noundef %.05784, ptr noundef null, i32 noundef 0, ptr noundef %.05983) #11
  br label %25

.thread86:                                        ; preds = %..thread86_crit_edge, %.thread68
  %15 = phi i64 [ %.pre, %..thread86_crit_edge ], [ %11, %.thread68 ]
  %16 = trunc i64 %15 to i32
  %17 = call i32 @setegid(i32 noundef %16) #11
  %18 = icmp slt i32 %17, 0
  br i1 %18, label %19, label %23

19:                                               ; preds = %.thread86
  %20 = tail call ptr @__errno_location() #12
  %21 = load i32, ptr %20, align 4
  store i32 %21, ptr @posix_globals, align 4
  %22 = getelementptr inbounds i8, ptr %1, i64 8
  store i32 2, ptr %22, align 8
  br label %25

23:                                               ; preds = %.thread86
  %24 = getelementptr inbounds i8, ptr %1, i64 8
  store i32 3, ptr %24, align 8
  br label %25

25:                                               ; preds = %23, %19, %14
  ret void
}